(dp0
S'Member'
p1
(dp2
S'ColumSection'
p3
S'ISSC 200'
p4
sS'fu (MPa)'
p5
I410
sS'BeamSection'
p6
S'ISMB 400'
p7
sS'fy (MPa)'
p8
I250
sS'Connectivity'
p9
S'Column flange-Beam web'
p10
ssS'Plate'
p11
(dp12
S'Width (mm)'
p13
I150
sS'Height (mm)'
p14
I320
sS'Thickness (mm)'
p15
I16
ssS'Load'
p16
(dp17
S'ShearForce (kN)'
p18
I240
ssS'Weld'
p19
(dp20
S'Size (mm)'
p21
I8
ssS'Bolt'
p22
(dp23
S'Grade'
p24
F4.8
sS'Diameter (mm)'
p25
I16
sS'Type'
p26
S'Black Bolt'
p27
ss.