(dp0
S'Member'
p1
(dp2
S'columSection'
p3
S'Select Column'
p4
sS'fy(MPa)'
p5
I0
sS'fu(MPa)'
p6
I0
sS'beamSection'
p7
S'Select Designation'
p8
sS'connectivity'
p9
S'Select Connectivity'
p10
ssS'Plate'
p11
(dp12
S'thickness(mm)'
p13
I0
sS'length(mm)'
p14
I0
sS'width(mm)'
p15
I0
ssS'Load'
p16
(dp17
S'shearForce(kN)'
p18
I0
ssS'Weld'
p19
(dp20
S'size(mm)'
p21
I0
ssS'Bolt'
p22
(dp23
S'grade'
p24
S''
p25
sS'type'
p26
S'Please Select Type'
p27
sS'diameter(mm)'
p28
I0
ss.