(dp0
S'Member'
p1
(dp2
S'columSection'
p3
S'ISSC 200'
p4
sS'fy(MPa)'
p5
I250
sS'fu(MPa)'
p6
I410
sS'beamSection'
p7
S'ISMB 400'
p8
sS'connectivity'
p9
S'Column web-Beam web'
p10
ssS'Plate'
p11
(dp12
S'thickness(mm)'
p13
I12
sS'height(mm)'
p14
I300
sS'width(mm)'
p15
I100
ssS'Load'
p16
(dp17
S'shearForce(kN)'
p18
I140
ssS'Weld'
p19
(dp20
S'size(mm)'
p21
I6
ssS'Bolt'
p22
(dp23
S'grade'
p24
F8.8
sS'type'
p25
S'HSFG'
p26
sS'diameter(mm)'
p27
I20
ss.