(dp0
S'Member'
p1
(dp2
S'columSection'
p3
S'ISHB 250'
p4
sS'fy(MPa)'
p5
I250
sS'fu(MPa)'
p6
I410
sS'beamSection'
p7
S'ISMB 400'
p8
sS'connectivity'
p9
S'Column web-Beam web'
p10
ssS'Plate'
p11
(dp12
S'thickness(mm)'
p13
I12
sS'length(mm)'
p14
I300
sS'width(mm)'
p15
I100
ssS'Load'
p16
(dp17
S'shearForce(kN)'
p18
I140
ssS'Weld'
p19
(dp20
S'size(mm)'
p21
I6
ssS'Bolt'
p22
(dp23
S'grade'
p24
S'8.8'
p25
sS'type'
p26
S'HSFG'
p27
sS'diameter(mm)'
p28
I20
ss.